target datalayout = "e-m:e-p270:32:32-p271:32:32-p272:64:64-i64:64-i128:128-f80:128-n8:16:32:64-S128"
target triple = "x86_64-pc-linux-gnu"

%"class.icu_77::MaybeStackArray" = type <{ ptr, i32, i8, [40 x i8], [3 x i8] }>
%"class.icu_77::CharString" = type { %"class.icu_77::MaybeStackArray", i32, [4 x i8] }

; Function Attrs: mustprogress nounwind uwtable
define weak_odr void @_ZN6icu_7715MaybeStackArrayIcLi40EE17resetToStackArrayEv(ptr noundef nonnull align 8 dereferenceable(53) %0) #0 comdat align 2 {
  %2 = alloca ptr, align 8
  store ptr %0, ptr %2, align 8, !tbaa !3
  %3 = load ptr, ptr %2, align 8
  %4 = getelementptr inbounds nuw %"class.icu_77::MaybeStackArray", ptr %3, i32 0, i32 3
  %5 = getelementptr inbounds [40 x i8], ptr %4, i64 0, i64 0
  %6 = getelementptr inbounds nuw %"class.icu_77::MaybeStackArray", ptr %3, i32 0, i32 0
  store ptr %5, ptr %6, align 8, !tbaa !8
  %7 = getelementptr inbounds nuw %"class.icu_77::MaybeStackArray", ptr %3, i32 0, i32 1
  store i32 40, ptr %7, align 8, !tbaa !12
  %8 = getelementptr inbounds nuw %"class.icu_77::MaybeStackArray", ptr %3, i32 0, i32 2
  store i8 0, ptr %8, align 4, !tbaa !13
  ret void
}

; Function Attrs: mustprogress uwtable
define weak_odr void @_ZN6icu_7715MaybeStackArrayIcLi40EE12releaseArrayEv(ptr noundef nonnull align 8 dereferenceable(53) %0) #1 comdat align 2 {
  %2 = alloca ptr, align 8
  store ptr %0, ptr %2, align 8, !tbaa !3
  %3 = load ptr, ptr %2, align 8
  %4 = getelementptr inbounds nuw %"class.icu_77::MaybeStackArray", ptr %3, i32 0, i32 2
  %5 = load i8, ptr %4, align 4, !tbaa !13
  %6 = icmp ne i8 %5, 0
  br i1 %6, label %7, label %10

7:                                                ; preds = %1
  %8 = getelementptr inbounds nuw %"class.icu_77::MaybeStackArray", ptr %3, i32 0, i32 0
  %9 = load ptr, ptr %8, align 8, !tbaa !8
  call void @uprv_free_77(ptr noundef %9)
  br label %10

10:                                               ; preds = %7, %1
  ret void
}

; Function Attrs: inlinehint mustprogress nounwind uwtable
define weak_odr noundef nonnull align 8 dereferenceable(53) ptr @_ZN6icu_7715MaybeStackArrayIcLi40EEaSEOS1_(ptr noundef nonnull align 8 dereferenceable(53) %0, ptr noundef nonnull align 8 dereferenceable(53) %1) #2 comdat align 2 personality ptr @__gxx_personality_v0 {
  %3 = alloca ptr, align 8
  %4 = alloca ptr, align 8
  store ptr %0, ptr %3, align 8, !tbaa !3
  store ptr %1, ptr %4, align 8, !tbaa !3
  %5 = load ptr, ptr %3, align 8
  invoke void @_ZN6icu_7715MaybeStackArrayIcLi40EE12releaseArrayEv(ptr noundef nonnull align 8 dereferenceable(53) %5)
          to label %6 unwind label %47

6:                                                ; preds = %2
  %7 = load ptr, ptr %4, align 8, !tbaa !3
  %8 = getelementptr inbounds nuw %"class.icu_77::MaybeStackArray", ptr %7, i32 0, i32 1
  %9 = load i32, ptr %8, align 8, !tbaa !12
  %10 = getelementptr inbounds nuw %"class.icu_77::MaybeStackArray", ptr %5, i32 0, i32 1
  store i32 %9, ptr %10, align 8, !tbaa !12
  %11 = load ptr, ptr %4, align 8, !tbaa !3
  %12 = getelementptr inbounds nuw %"class.icu_77::MaybeStackArray", ptr %11, i32 0, i32 2
  %13 = load i8, ptr %12, align 4, !tbaa !13
  %14 = getelementptr inbounds nuw %"class.icu_77::MaybeStackArray", ptr %5, i32 0, i32 2
  store i8 %13, ptr %14, align 4, !tbaa !13
  %15 = load ptr, ptr %4, align 8, !tbaa !3
  %16 = getelementptr inbounds nuw %"class.icu_77::MaybeStackArray", ptr %15, i32 0, i32 0
  %17 = load ptr, ptr %16, align 8, !tbaa !8
  %18 = load ptr, ptr %4, align 8, !tbaa !3
  %19 = getelementptr inbounds nuw %"class.icu_77::MaybeStackArray", ptr %18, i32 0, i32 3
  %20 = getelementptr inbounds [40 x i8], ptr %19, i64 0, i64 0
  %21 = icmp eq ptr %17, %20
  br i1 %21, label %22, label %39

22:                                               ; preds = %6
  %23 = getelementptr inbounds nuw %"class.icu_77::MaybeStackArray", ptr %5, i32 0, i32 3
  %24 = getelementptr inbounds [40 x i8], ptr %23, i64 0, i64 0
  %25 = getelementptr inbounds nuw %"class.icu_77::MaybeStackArray", ptr %5, i32 0, i32 0
  store ptr %24, ptr %25, align 8, !tbaa !8
  br label %26

26:                                               ; preds = %22
  %27 = getelementptr inbounds nuw %"class.icu_77::MaybeStackArray", ptr %5, i32 0, i32 3
  %28 = getelementptr inbounds [40 x i8], ptr %27, i64 0, i64 0
  %29 = load ptr, ptr %4, align 8, !tbaa !3
  %30 = getelementptr inbounds nuw %"class.icu_77::MaybeStackArray", ptr %29, i32 0, i32 3
  %31 = getelementptr inbounds [40 x i8], ptr %30, i64 0, i64 0
  %32 = load ptr, ptr %4, align 8, !tbaa !3
  %33 = getelementptr inbounds nuw %"class.icu_77::MaybeStackArray", ptr %32, i32 0, i32 1
  %34 = load i32, ptr %33, align 8, !tbaa !12
  %35 = sext i32 %34 to i64
  %36 = mul i64 1, %35
  call void @llvm.memcpy.p0.p0.i64(ptr align 1 %28, ptr align 1 %31, i64 %36, i1 false)
  br label %37

37:                                               ; preds = %26
  br label %38

38:                                               ; preds = %37
  br label %46

39:                                               ; preds = %6
  %40 = load ptr, ptr %4, align 8, !tbaa !3
  %41 = getelementptr inbounds nuw %"class.icu_77::MaybeStackArray", ptr %40, i32 0, i32 0
  %42 = load ptr, ptr %41, align 8, !tbaa !8
  %43 = getelementptr inbounds nuw %"class.icu_77::MaybeStackArray", ptr %5, i32 0, i32 0
  store ptr %42, ptr %43, align 8, !tbaa !8
  %44 = load ptr, ptr %4, align 8, !tbaa !3
  invoke void @_ZN6icu_7715MaybeStackArrayIcLi40EE17resetToStackArrayEv(ptr noundef nonnull align 8 dereferenceable(53) %44)
          to label %45 unwind label %47

45:                                               ; preds = %39
  br label %46

46:                                               ; preds = %45, %38
  ret ptr %5

47:                                               ; preds = %39, %2
  %48 = landingpad { ptr, i32 }
          catch ptr null
  %49 = extractvalue { ptr, i32 } %48, 0
  call void @__clang_call_terminate(ptr %49) #13
  unreachable
}

; Function Attrs: mustprogress nounwind uwtable
define noundef nonnull align 8 dereferenceable(60) ptr @_ZN6icu_7710CharStringaSEOS0_(ptr noundef nonnull align 8 dereferenceable(60) %0, ptr noundef nonnull align 8 dereferenceable(60) %1) #0 align 2 {
  %3 = alloca ptr, align 8
  %4 = alloca ptr, align 8
  store ptr %0, ptr %3, align 8, !tbaa !23
  store ptr %1, ptr %4, align 8, !tbaa !23
  %5 = load ptr, ptr %3, align 8
  %6 = load ptr, ptr %4, align 8, !tbaa !23
  %7 = getelementptr inbounds nuw %"class.icu_77::CharString", ptr %6, i32 0, i32 0
  %8 = getelementptr inbounds nuw %"class.icu_77::CharString", ptr %5, i32 0, i32 0
  %9 = call noundef nonnull align 8 dereferenceable(53) ptr @_ZN6icu_7715MaybeStackArrayIcLi40EEaSEOS1_(ptr noundef nonnull align 8 dereferenceable(53) %8, ptr noundef nonnull align 8 dereferenceable(53) %7) #11
  %10 = load ptr, ptr %4, align 8, !tbaa !23
  %11 = getelementptr inbounds nuw %"class.icu_77::CharString", ptr %10, i32 0, i32 1
  %12 = load i32, ptr %11, align 8, !tbaa !25
  %13 = getelementptr inbounds nuw %"class.icu_77::CharString", ptr %5, i32 0, i32 1
  store i32 %12, ptr %13, align 8, !tbaa !25
  %14 = load ptr, ptr %4, align 8, !tbaa !23
  %15 = getelementptr inbounds nuw %"class.icu_77::CharString", ptr %14, i32 0, i32 1
  store i32 0, ptr %15, align 8, !tbaa !25
  ret ptr %5
}