; Function Attrs: mustprogress nounwind uwtable
define noundef nonnull align 8 dereferenceable(60) ptr @_ZN6icu_7710CharStringaSEOS0_(ptr noundef nonnull returned align 8 dereferenceable(60) %0, ptr noundef nonnull align 8 dereferenceable(60) %1) local_unnamed_addr #0 align 2 personality ptr @__gxx_personality_v0 {
  %3 = getelementptr inbounds nuw i8, ptr %0, i64 12
  %4 = load i8, ptr %3, align 4, !tbaa !11
  %.not.i.i = icmp eq i8 %4, 0
  br i1 %.not.i.i, label %_ZN6icu_7715MaybeStackArrayIcLi40EE12releaseArrayEv.exit.i, label %5

5:                                                ; preds = %2
  %6 = load ptr, ptr %0, align 8, !tbaa !3
  invoke void @uprv_free_77(ptr noundef %6)
          to label %_ZN6icu_7715MaybeStackArrayIcLi40EE12releaseArrayEv.exit.i unwind label %19

_ZN6icu_7715MaybeStackArrayIcLi40EE12releaseArrayEv.exit.i: ; preds = %5, %2
  %7 = getelementptr inbounds nuw i8, ptr %1, i64 8
  %8 = load i32, ptr %7, align 8, !tbaa !10
  %9 = getelementptr inbounds nuw i8, ptr %0, i64 8
  store i32 %8, ptr %9, align 8, !tbaa !10
  %10 = getelementptr inbounds nuw i8, ptr %1, i64 12
  %11 = load i8, ptr %10, align 4, !tbaa !11
  store i8 %11, ptr %3, align 4, !tbaa !11
  %12 = load ptr, ptr %1, align 8, !tbaa !3
  %13 = getelementptr inbounds nuw i8, ptr %1, i64 13
  %14 = icmp eq ptr %12, %13
  br i1 %14, label %15, label %18

15:                                               ; preds = %_ZN6icu_7715MaybeStackArrayIcLi40EE12releaseArrayEv.exit.i
  %16 = getelementptr inbounds nuw i8, ptr %0, i64 13
  store ptr %16, ptr %0, align 8, !tbaa !3
  %17 = sext i32 %8 to i64
  tail call void @llvm.memcpy.p0.p0.i64(ptr nonnull align 1 %16, ptr nonnull align 1 %13, i64 %17, i1 false)
  br label %_ZN6icu_7715MaybeStackArrayIcLi40EEaSEOS1_.exit

18:                                               ; preds = %_ZN6icu_7715MaybeStackArrayIcLi40EE12releaseArrayEv.exit.i
  store ptr %12, ptr %0, align 8, !tbaa !3
  store ptr %13, ptr %1, align 8, !tbaa !3
  store i32 40, ptr %7, align 8, !tbaa !10
  store i8 0, ptr %10, align 4, !tbaa !11
  br label %_ZN6icu_7715MaybeStackArrayIcLi40EEaSEOS1_.exit

19:                                               ; preds = %5
  %20 = landingpad { ptr, i32 }
          catch ptr null
  %21 = extractvalue { ptr, i32 } %20, 0
  tail call void @__clang_call_terminate(ptr %21) #20
  unreachable

_ZN6icu_7715MaybeStackArrayIcLi40EEaSEOS1_.exit:  ; preds = %15, %18
  %22 = getelementptr inbounds nuw i8, ptr %1, i64 56
  %23 = load i32, ptr %22, align 8, !tbaa !15
  %24 = getelementptr inbounds nuw i8, ptr %0, i64 56
  store i32 %23, ptr %24, align 8, !tbaa !15
  store i32 0, ptr %22, align 8, !tbaa !15
  ret ptr %0
}